target datalayout = "e-m:e-p270:32:32-p271:32:32-p272:64:64-i64:64-i128:128-f80:128-n8:16:32:64-S128"
target triple = "x86_64-pc-linux-gnu"

%struct.VP8BitWriter = type { i32, i32, i32, i32, ptr, i64, i64, i32 }

; Function Attrs: nounwind uwtable
define internal i32 @BitWriterResize(ptr noundef %0, i64 noundef %1) #0 {
  %3 = alloca i32, align 4
  %4 = alloca ptr, align 8
  %5 = alloca i64, align 8
  %6 = alloca ptr, align 8
  %7 = alloca i64, align 8
  %8 = alloca i64, align 8
  %9 = alloca i64, align 8
  %10 = alloca i32, align 4
  store ptr %0, ptr %4, align 8, !tbaa !3
  store i64 %1, ptr %5, align 8, !tbaa !18
  call void @llvm.lifetime.start.p0(i64 8, ptr %6) #6
  call void @llvm.lifetime.start.p0(i64 8, ptr %7) #6
  call void @llvm.lifetime.start.p0(i64 8, ptr %8) #6
  %11 = load ptr, ptr %4, align 8, !tbaa !3
  %12 = getelementptr inbounds nuw %struct.VP8BitWriter, ptr %11, i32 0, i32 5
  %13 = load i64, ptr %12, align 8, !tbaa !17
  %14 = load i64, ptr %5, align 8, !tbaa !18
  %15 = add i64 %13, %14
  store i64 %15, ptr %8, align 8, !tbaa !18
  call void @llvm.lifetime.start.p0(i64 8, ptr %9) #6
  %16 = load i64, ptr %8, align 8, !tbaa !18
  store i64 %16, ptr %9, align 8, !tbaa !18
  %17 = load i64, ptr %8, align 8, !tbaa !18
  %18 = load i64, ptr %9, align 8, !tbaa !18
  %19 = icmp ne i64 %17, %18
  br i1 %19, label %20, label %23

20:                                               ; preds = %2
  %21 = load ptr, ptr %4, align 8, !tbaa !3
  %22 = getelementptr inbounds nuw %struct.VP8BitWriter, ptr %21, i32 0, i32 7
  store i32 1, ptr %22, align 8, !tbaa !25
  store i32 0, ptr %3, align 4
  store i32 1, ptr %10, align 4
  br label %75

23:                                               ; preds = %2
  %24 = load i64, ptr %9, align 8, !tbaa !18
  %25 = load ptr, ptr %4, align 8, !tbaa !3
  %26 = getelementptr inbounds nuw %struct.VP8BitWriter, ptr %25, i32 0, i32 6
  %27 = load i64, ptr %26, align 8, !tbaa !24
  %28 = icmp ule i64 %24, %27
  br i1 %28, label %29, label %30

29:                                               ; preds = %23
  store i32 1, ptr %3, align 4
  store i32 1, ptr %10, align 4
  br label %75

30:                                               ; preds = %23
  %31 = load ptr, ptr %4, align 8, !tbaa !3
  %32 = getelementptr inbounds nuw %struct.VP8BitWriter, ptr %31, i32 0, i32 6
  %33 = load i64, ptr %32, align 8, !tbaa !24
  %34 = mul i64 2, %33
  store i64 %34, ptr %7, align 8, !tbaa !18
  %35 = load i64, ptr %7, align 8, !tbaa !18
  %36 = load i64, ptr %9, align 8, !tbaa !18
  %37 = icmp ult i64 %35, %36
  br i1 %37, label %38, label %40

38:                                               ; preds = %30
  %39 = load i64, ptr %9, align 8, !tbaa !18
  store i64 %39, ptr %7, align 8, !tbaa !18
  br label %40

40:                                               ; preds = %38, %30
  %41 = load i64, ptr %7, align 8, !tbaa !18
  %42 = icmp ult i64 %41, 1024
  br i1 %42, label %43, label %44

43:                                               ; preds = %40
  store i64 1024, ptr %7, align 8, !tbaa !18
  br label %44

44:                                               ; preds = %43, %40
  %45 = load i64, ptr %7, align 8, !tbaa !18
  %46 = call ptr @WebPSafeMalloc(i64 noundef 1, i64 noundef %45)
  store ptr %46, ptr %6, align 8, !tbaa !26
  %47 = load ptr, ptr %6, align 8, !tbaa !26
  %48 = icmp eq ptr %47, null
  br i1 %48, label %49, label %52

49:                                               ; preds = %44
  %50 = load ptr, ptr %4, align 8, !tbaa !3
  %51 = getelementptr inbounds nuw %struct.VP8BitWriter, ptr %50, i32 0, i32 7
  store i32 1, ptr %51, align 8, !tbaa !25
  store i32 0, ptr %3, align 4
  store i32 1, ptr %10, align 4
  br label %75

52:                                               ; preds = %44
  %53 = load ptr, ptr %4, align 8, !tbaa !3
  %54 = getelementptr inbounds nuw %struct.VP8BitWriter, ptr %53, i32 0, i32 5
  %55 = load i64, ptr %54, align 8, !tbaa !17
  %56 = icmp ugt i64 %55, 0
  br i1 %56, label %57, label %65

57:                                               ; preds = %52
  %58 = load ptr, ptr %6, align 8, !tbaa !26
  %59 = load ptr, ptr %4, align 8, !tbaa !3
  %60 = getelementptr inbounds nuw %struct.VP8BitWriter, ptr %59, i32 0, i32 4
  %61 = load ptr, ptr %60, align 8, !tbaa !20
  %62 = load ptr, ptr %4, align 8, !tbaa !3
  %63 = getelementptr inbounds nuw %struct.VP8BitWriter, ptr %62, i32 0, i32 5
  %64 = load i64, ptr %63, align 8, !tbaa !17
  call void @llvm.memcpy.p0.p0.i64(ptr align 1 %58, ptr align 1 %61, i64 %64, i1 false)
  br label %65

65:                                               ; preds = %57, %52
  %66 = load ptr, ptr %4, align 8, !tbaa !3
  %67 = getelementptr inbounds nuw %struct.VP8BitWriter, ptr %66, i32 0, i32 4
  %68 = load ptr, ptr %67, align 8, !tbaa !20
  call void @WebPSafeFree(ptr noundef %68)
  %69 = load ptr, ptr %6, align 8, !tbaa !26
  %70 = load ptr, ptr %4, align 8, !tbaa !3
  %71 = getelementptr inbounds nuw %struct.VP8BitWriter, ptr %70, i32 0, i32 4
  store ptr %69, ptr %71, align 8, !tbaa !20
  %72 = load i64, ptr %7, align 8, !tbaa !18
  %73 = load ptr, ptr %4, align 8, !tbaa !3
  %74 = getelementptr inbounds nuw %struct.VP8BitWriter, ptr %73, i32 0, i32 6
  store i64 %72, ptr %74, align 8, !tbaa !24
  store i32 1, ptr %3, align 4
  store i32 1, ptr %10, align 4
  br label %75

75:                                               ; preds = %65, %49, %29, %20
  call void @llvm.lifetime.end.p0(i64 8, ptr %9) #6
  call void @llvm.lifetime.end.p0(i64 8, ptr %8) #6
  call void @llvm.lifetime.end.p0(i64 8, ptr %7) #6
  call void @llvm.lifetime.end.p0(i64 8, ptr %6) #6
  %76 = load i32, ptr %3, align 4
  ret i32 %76
}

; Function Attrs: nounwind uwtable
define internal void @Flush(ptr noundef %0) #0 {
  %2 = alloca ptr, align 8
  %3 = alloca i32, align 4
  %4 = alloca i32, align 4
  %5 = alloca i64, align 8
  %6 = alloca i32, align 4
  %7 = alloca i32, align 4
  store ptr %0, ptr %2, align 8, !tbaa !3
  call void @llvm.lifetime.start.p0(i64 4, ptr %3) #6
  %8 = load ptr, ptr %2, align 8, !tbaa !3
  %9 = getelementptr inbounds nuw %struct.VP8BitWriter, ptr %8, i32 0, i32 3
  %10 = load i32, ptr %9, align 4, !tbaa !16
  %11 = add nsw i32 8, %10
  store i32 %11, ptr %3, align 4, !tbaa !8
  call void @llvm.lifetime.start.p0(i64 4, ptr %4) #6
  %12 = load ptr, ptr %2, align 8, !tbaa !3
  %13 = getelementptr inbounds nuw %struct.VP8BitWriter, ptr %12, i32 0, i32 1
  %14 = load i32, ptr %13, align 4, !tbaa !14
  %15 = load i32, ptr %3, align 4, !tbaa !8
  %16 = ashr i32 %14, %15
  store i32 %16, ptr %4, align 4, !tbaa !8
  %17 = load i32, ptr %4, align 4, !tbaa !8
  %18 = load i32, ptr %3, align 4, !tbaa !8
  %19 = shl i32 %17, %18
  %20 = load ptr, ptr %2, align 8, !tbaa !3
  %21 = getelementptr inbounds nuw %struct.VP8BitWriter, ptr %20, i32 0, i32 1
  %22 = load i32, ptr %21, align 4, !tbaa !14
  %23 = sub nsw i32 %22, %19
  store i32 %23, ptr %21, align 4, !tbaa !14
  %24 = load ptr, ptr %2, align 8, !tbaa !3
  %25 = getelementptr inbounds nuw %struct.VP8BitWriter, ptr %24, i32 0, i32 3
  %26 = load i32, ptr %25, align 4, !tbaa !16
  %27 = sub nsw i32 %26, 8
  store i32 %27, ptr %25, align 4, !tbaa !16
  %28 = load i32, ptr %4, align 4, !tbaa !8
  %29 = and i32 %28, 255
  %30 = icmp ne i32 %29, 255
  br i1 %30, label %31, label %107

31:                                               ; preds = %1
  call void @llvm.lifetime.start.p0(i64 8, ptr %5) #6
  %32 = load ptr, ptr %2, align 8, !tbaa !3
  %33 = getelementptr inbounds nuw %struct.VP8BitWriter, ptr %32, i32 0, i32 5
  %34 = load i64, ptr %33, align 8, !tbaa !17
  store i64 %34, ptr %5, align 8, !tbaa !18
  %35 = load ptr, ptr %2, align 8, !tbaa !3
  %36 = load ptr, ptr %2, align 8, !tbaa !3
  %37 = getelementptr inbounds nuw %struct.VP8BitWriter, ptr %36, i32 0, i32 2
  %38 = load i32, ptr %37, align 8, !tbaa !19
  %39 = add nsw i32 %38, 1
  %40 = sext i32 %39 to i64
  %41 = call i32 @BitWriterResize(ptr noundef %35, i64 noundef %40)
  %42 = icmp ne i32 %41, 0
  br i1 %42, label %44, label %43

43:                                               ; preds = %31
  store i32 1, ptr %6, align 4
  br label %104

44:                                               ; preds = %31
  %45 = load i32, ptr %4, align 4, !tbaa !8
  %46 = and i32 %45, 256
  %47 = icmp ne i32 %46, 0
  br i1 %47, label %48, label %61

48:                                               ; preds = %44
  %49 = load i64, ptr %5, align 8, !tbaa !18
  %50 = icmp ugt i64 %49, 0
  br i1 %50, label %51, label %60

51:                                               ; preds = %48
  %52 = load ptr, ptr %2, align 8, !tbaa !3
  %53 = getelementptr inbounds nuw %struct.VP8BitWriter, ptr %52, i32 0, i32 4
  %54 = load ptr, ptr %53, align 8, !tbaa !20
  %55 = load i64, ptr %5, align 8, !tbaa !18
  %56 = sub i64 %55, 1
  %57 = getelementptr inbounds nuw i8, ptr %54, i64 %56
  %58 = load i8, ptr %57, align 1, !tbaa !15
  %59 = add i8 %58, 1
  store i8 %59, ptr %57, align 1, !tbaa !15
  br label %60

60:                                               ; preds = %51, %48
  br label %61

61:                                               ; preds = %60, %44
  %62 = load ptr, ptr %2, align 8, !tbaa !3
  %63 = getelementptr inbounds nuw %struct.VP8BitWriter, ptr %62, i32 0, i32 2
  %64 = load i32, ptr %63, align 8, !tbaa !19
  %65 = icmp sgt i32 %64, 0
  br i1 %65, label %66, label %91

66:                                               ; preds = %61
  call void @llvm.lifetime.start.p0(i64 4, ptr %7) #6
  %67 = load i32, ptr %4, align 4, !tbaa !8
  %68 = and i32 %67, 256
  %69 = icmp ne i32 %68, 0
  %70 = select i1 %69, i32 0, i32 255
  store i32 %70, ptr %7, align 4, !tbaa !8
  br label %71

71:                                               ; preds = %85, %66
  %72 = load ptr, ptr %2, align 8, !tbaa !3
  %73 = getelementptr inbounds nuw %struct.VP8BitWriter, ptr %72, i32 0, i32 2
  %74 = load i32, ptr %73, align 8, !tbaa !19
  %75 = icmp sgt i32 %74, 0
  br i1 %75, label %76, label %90

76:                                               ; preds = %71
  %77 = load i32, ptr %7, align 4, !tbaa !8
  %78 = trunc i32 %77 to i8
  %79 = load ptr, ptr %2, align 8, !tbaa !3
  %80 = getelementptr inbounds nuw %struct.VP8BitWriter, ptr %79, i32 0, i32 4
  %81 = load ptr, ptr %80, align 8, !tbaa !20
  %82 = load i64, ptr %5, align 8, !tbaa !18
  %83 = add i64 %82, 1
  store i64 %83, ptr %5, align 8, !tbaa !18
  %84 = getelementptr inbounds nuw i8, ptr %81, i64 %82
  store i8 %78, ptr %84, align 1, !tbaa !15
  br label %85

85:                                               ; preds = %76
  %86 = load ptr, ptr %2, align 8, !tbaa !3
  %87 = getelementptr inbounds nuw %struct.VP8BitWriter, ptr %86, i32 0, i32 2
  %88 = load i32, ptr %87, align 8, !tbaa !19
  %89 = add nsw i32 %88, -1
  store i32 %89, ptr %87, align 8, !tbaa !19
  br label %71, !llvm.loop !21

90:                                               ; preds = %71
  call void @llvm.lifetime.end.p0(i64 4, ptr %7) #6
  br label %91

91:                                               ; preds = %90, %61
  %92 = load i32, ptr %4, align 4, !tbaa !8
  %93 = and i32 %92, 255
  %94 = trunc i32 %93 to i8
  %95 = load ptr, ptr %2, align 8, !tbaa !3
  %96 = getelementptr inbounds nuw %struct.VP8BitWriter, ptr %95, i32 0, i32 4
  %97 = load ptr, ptr %96, align 8, !tbaa !20
  %98 = load i64, ptr %5, align 8, !tbaa !18
  %99 = add i64 %98, 1
  store i64 %99, ptr %5, align 8, !tbaa !18
  %100 = getelementptr inbounds nuw i8, ptr %97, i64 %98
  store i8 %94, ptr %100, align 1, !tbaa !15
  %101 = load i64, ptr %5, align 8, !tbaa !18
  %102 = load ptr, ptr %2, align 8, !tbaa !3
  %103 = getelementptr inbounds nuw %struct.VP8BitWriter, ptr %102, i32 0, i32 5
  store i64 %101, ptr %103, align 8, !tbaa !17
  store i32 0, ptr %6, align 4
  br label %104

104:                                              ; preds = %91, %43
  call void @llvm.lifetime.end.p0(i64 8, ptr %5) #6
  %105 = load i32, ptr %6, align 4
  switch i32 %105, label %113 [
    i32 0, label %106
  ]

106:                                              ; preds = %104
  br label %112

107:                                              ; preds = %1
  %108 = load ptr, ptr %2, align 8, !tbaa !3
  %109 = getelementptr inbounds nuw %struct.VP8BitWriter, ptr %108, i32 0, i32 2
  %110 = load i32, ptr %109, align 8, !tbaa !19
  %111 = add nsw i32 %110, 1
  store i32 %111, ptr %109, align 8, !tbaa !19
  br label %112

112:                                              ; preds = %107, %106
  store i32 0, ptr %6, align 4
  br label %113

113:                                              ; preds = %112, %104
  call void @llvm.lifetime.end.p0(i64 4, ptr %4) #6
  call void @llvm.lifetime.end.p0(i64 4, ptr %3) #6
  %114 = load i32, ptr %6, align 4
  switch i32 %114, label %116 [
    i32 0, label %115
    i32 1, label %115
  ]

115:                                              ; preds = %113, %113
  ret void

116:                                              ; preds = %113
  unreachable
}