; Function Attrs: nounwind uwtable
define internal fastcc void @Flush(ptr noundef captures(none) %0) unnamed_addr #0 {
  %2 = getelementptr inbounds nuw i8, ptr %0, i64 12
  %3 = load i32, ptr %2, align 4, !tbaa !13
  %4 = add nsw i32 %3, 8
  %5 = getelementptr inbounds nuw i8, ptr %0, i64 4
  %6 = load i32, ptr %5, align 4, !tbaa !11
  %7 = ashr i32 %6, %4
  %8 = shl i32 %7, %4
  %9 = sub nsw i32 %6, %8
  store i32 %9, ptr %5, align 4, !tbaa !11
  %10 = add nsw i32 %3, -8
  store i32 %10, ptr %2, align 4, !tbaa !13
  %11 = and i32 %7, 255
  %.not = icmp eq i32 %11, 255
  br i1 %.not, label %63, label %12

12:                                               ; preds = %1
  %13 = getelementptr inbounds nuw i8, ptr %0, i64 24
  %14 = load i64, ptr %13, align 8, !tbaa !14
  %15 = getelementptr inbounds nuw i8, ptr %0, i64 8
  %16 = load i32, ptr %15, align 8, !tbaa !15
  %17 = add nsw i32 %16, 1
  %18 = sext i32 %17 to i64
  %19 = add i64 %14, %18
  %20 = getelementptr inbounds nuw i8, ptr %0, i64 32
  %21 = load i64, ptr %20, align 8, !tbaa !16
  %.not.i = icmp ugt i64 %19, %21
  br i1 %.not.i, label %22, label %35

22:                                               ; preds = %12
  %23 = shl i64 %21, 1
  %spec.select.i = tail call i64 @llvm.umax.i64(i64 %23, i64 %19)
  %spec.store.select.i = tail call i64 @llvm.umax.i64(i64 %spec.select.i, i64 1024)
  %24 = tail call ptr @WebPSafeMalloc(i64 noundef 1, i64 noundef %spec.store.select.i) #7
  %25 = icmp eq ptr %24, null
  br i1 %25, label %BitWriterResize.exit, label %26

26:                                               ; preds = %22
  %27 = load i64, ptr %13, align 8, !tbaa !14
  %.not31.i = icmp eq i64 %27, 0
  br i1 %.not31.i, label %31, label %28

28:                                               ; preds = %26
  %29 = getelementptr inbounds nuw i8, ptr %0, i64 16
  %30 = load ptr, ptr %29, align 8, !tbaa !17
  tail call void @llvm.memcpy.p0.p0.i64(ptr nonnull align 1 %24, ptr align 1 %30, i64 %27, i1 false)
  br label %31

31:                                               ; preds = %28, %26
  %32 = getelementptr inbounds nuw i8, ptr %0, i64 16
  %33 = load ptr, ptr %32, align 8, !tbaa !17
  tail call void @WebPSafeFree(ptr noundef %33) #7
  store ptr %24, ptr %32, align 8, !tbaa !17
  store i64 %spec.store.select.i, ptr %20, align 8, !tbaa !16
  br label %35

BitWriterResize.exit:                             ; preds = %22
  %34 = getelementptr inbounds nuw i8, ptr %0, i64 40
  store i32 1, ptr %34, align 8, !tbaa !18
  br label %.critedge

35:                                               ; preds = %31, %12
  %36 = and i32 %7, 256
  %37 = icmp ne i32 %36, 0
  %38 = icmp ne i64 %14, 0
  %or.cond = and i1 %37, %38
  br i1 %or.cond, label %39, label %46

39:                                               ; preds = %35
  %40 = getelementptr inbounds nuw i8, ptr %0, i64 16
  %41 = load ptr, ptr %40, align 8, !tbaa !17
  %42 = getelementptr i8, ptr %41, i64 %14
  %43 = getelementptr i8, ptr %42, i64 -1
  %44 = load i8, ptr %43, align 1, !tbaa !12
  %45 = add i8 %44, 1
  store i8 %45, ptr %43, align 1, !tbaa !12
  br label %46

46:                                               ; preds = %39, %35
  %47 = load i32, ptr %15, align 8, !tbaa !15
  %48 = icmp sgt i32 %47, 0
  br i1 %48, label %.preheader, label %.loopexit

.preheader:                                       ; preds = %46
  %not. = xor i1 %37, true
  %49 = sext i1 %not. to i8
  %50 = getelementptr inbounds nuw i8, ptr %0, i64 16
  br label %51

51:                                               ; preds = %.preheader, %51
  %.135 = phi i64 [ %14, %.preheader ], [ %53, %51 ]
  %52 = load ptr, ptr %50, align 8, !tbaa !17
  %53 = add i64 %.135, 1
  %54 = getelementptr inbounds nuw i8, ptr %52, i64 %.135
  store i8 %49, ptr %54, align 1, !tbaa !12
  %55 = load i32, ptr %15, align 8, !tbaa !15
  %56 = add nsw i32 %55, -1
  store i32 %56, ptr %15, align 8, !tbaa !15
  %57 = icmp sgt i32 %55, 1
  br i1 %57, label %51, label %.loopexit, !llvm.loop !19

.loopexit:                                        ; preds = %51, %46
  %.0 = phi i64 [ %14, %46 ], [ %53, %51 ]
  %58 = trunc i32 %7 to i8
  %59 = getelementptr inbounds nuw i8, ptr %0, i64 16
  %60 = load ptr, ptr %59, align 8, !tbaa !17
  %61 = add i64 %.0, 1
  %62 = getelementptr inbounds nuw i8, ptr %60, i64 %.0
  store i8 %58, ptr %62, align 1, !tbaa !12
  store i64 %61, ptr %13, align 8, !tbaa !14
  br label %.critedge

63:                                               ; preds = %1
  %64 = getelementptr inbounds nuw i8, ptr %0, i64 8
  %65 = load i32, ptr %64, align 8, !tbaa !15
  %66 = add nsw i32 %65, 1
  store i32 %66, ptr %64, align 8, !tbaa !15
  br label %.critedge

.critedge:                                        ; preds = %BitWriterResize.exit, %.loopexit, %63
  ret void
}